target datalayout = "e-m:e-p270:32:32-p271:32:32-p272:64:64-i64:64-i128:128-f80:128-n8:16:32:64-S128"
target triple = "x86_64-pc-linux-gnu"

%struct.qt_meta_stringdata_CaptureCommentTabWidget_t = type { [2 x i32], [24 x i8] }

@_ZL42qt_meta_stringdata_CaptureCommentTabWidget = internal constant %struct.qt_meta_stringdata_CaptureCommentTabWidget_t { [2 x i32] [i32 8, i32 23], [24 x i8] c"CaptureCommentTabWidget\00" }, align 4

; Function Attrs: mustprogress null_pointer_is_valid sspstrong uwtable
define noundef ptr @_ZN23CaptureCommentTabWidget11qt_metacastEPKc(ptr noundef align 8 dereferenceable_or_null(40) %0, ptr noundef %1) unnamed_addr #0 align 2 {
  %3 = alloca ptr, align 8
  %4 = alloca ptr, align 8
  %5 = alloca ptr, align 8
  store ptr %0, ptr %4, align 8
  store ptr %1, ptr %5, align 8
  %6 = load ptr, ptr %4, align 8
  %7 = load ptr, ptr %5, align 8
  %8 = icmp ne ptr %7, null
  br i1 %8, label %10, label %9

9:                                                ; preds = %2
  store ptr null, ptr %3, align 8
  br label %18

10:                                               ; preds = %2
  %11 = load ptr, ptr %5, align 8
  %12 = call i32 @strcmp(ptr noundef %11, ptr noundef getelementptr inbounds nuw (%struct.qt_meta_stringdata_CaptureCommentTabWidget_t, ptr @_ZL42qt_meta_stringdata_CaptureCommentTabWidget, i32 0, i32 1)) #17
  %13 = icmp ne i32 %12, 0
  br i1 %13, label %15, label %14

14:                                               ; preds = %10
  store ptr %6, ptr %3, align 8
  br label %18

15:                                               ; preds = %10
  %16 = load ptr, ptr %5, align 8
  %17 = call noundef ptr @_ZN10QTabWidget11qt_metacastEPKc(ptr noundef align 8 dereferenceable_or_null(40) %6, ptr noundef %16)
  store ptr %17, ptr %3, align 8
  br label %18

18:                                               ; preds = %15, %14, %9
  %19 = load ptr, ptr %3, align 8
  ret ptr %19
}